target datalayout = "e-m:e-p270:32:32-p271:32:32-p272:64:64-i64:64-i128:128-f80:128-n8:16:32:64-S128"
target triple = "x86_64-pc-linux-gnu"

%struct._php_random_status_state_xoshiro256starstar = type { [4 x i64] }

; Function Attrs: inlinehint nounwind uwtable
define dso_local void @php_random_xoshiro256starstar_seed256(ptr noundef %0, i64 noundef %1, i64 noundef %2, i64 noundef %3, i64 noundef %4) #0 {
  %6 = alloca ptr, align 8
  %7 = alloca i64, align 8
  %8 = alloca i64, align 8
  %9 = alloca i64, align 8
  %10 = alloca i64, align 8
  store ptr %0, ptr %6, align 8, !tbaa !4
  store i64 %1, ptr %7, align 8, !tbaa !9
  store i64 %2, ptr %8, align 8, !tbaa !9
  store i64 %3, ptr %9, align 8, !tbaa !9
  store i64 %4, ptr %10, align 8, !tbaa !9
  %11 = load i64, ptr %7, align 8, !tbaa !9
  %12 = load ptr, ptr %6, align 8, !tbaa !4
  %13 = getelementptr inbounds nuw %struct._php_random_status_state_xoshiro256starstar, ptr %12, i32 0, i32 0
  %14 = getelementptr inbounds [4 x i64], ptr %13, i64 0, i64 0
  store i64 %11, ptr %14, align 8, !tbaa !9
  %15 = load i64, ptr %8, align 8, !tbaa !9
  %16 = load ptr, ptr %6, align 8, !tbaa !4
  %17 = getelementptr inbounds nuw %struct._php_random_status_state_xoshiro256starstar, ptr %16, i32 0, i32 0
  %18 = getelementptr inbounds [4 x i64], ptr %17, i64 0, i64 1
  store i64 %15, ptr %18, align 8, !tbaa !9
  %19 = load i64, ptr %9, align 8, !tbaa !9
  %20 = load ptr, ptr %6, align 8, !tbaa !4
  %21 = getelementptr inbounds nuw %struct._php_random_status_state_xoshiro256starstar, ptr %20, i32 0, i32 0
  %22 = getelementptr inbounds [4 x i64], ptr %21, i64 0, i64 2
  store i64 %19, ptr %22, align 8, !tbaa !9
  %23 = load i64, ptr %10, align 8, !tbaa !9
  %24 = load ptr, ptr %6, align 8, !tbaa !4
  %25 = getelementptr inbounds nuw %struct._php_random_status_state_xoshiro256starstar, ptr %24, i32 0, i32 0
  %26 = getelementptr inbounds [4 x i64], ptr %25, i64 0, i64 3
  store i64 %23, ptr %26, align 8, !tbaa !9
  ret void
}

; Function Attrs: inlinehint nounwind uwtable
define internal i64 @splitmix64(ptr noundef %0) #0 {
  %2 = alloca ptr, align 8
  %3 = alloca i64, align 8
  store ptr %0, ptr %2, align 8, !tbaa !11
  call void @llvm.lifetime.start.p0(i64 8, ptr %3) #9
  %4 = load ptr, ptr %2, align 8, !tbaa !11
  %5 = load i64, ptr %4, align 8, !tbaa !9
  %6 = add i64 %5, -7046029254386353131
  store i64 %6, ptr %4, align 8, !tbaa !9
  store i64 %6, ptr %3, align 8, !tbaa !9
  %7 = load i64, ptr %3, align 8, !tbaa !9
  %8 = load i64, ptr %3, align 8, !tbaa !9
  %9 = lshr i64 %8, 30
  %10 = xor i64 %7, %9
  %11 = mul i64 %10, -4658895280553007687
  store i64 %11, ptr %3, align 8, !tbaa !9
  %12 = load i64, ptr %3, align 8, !tbaa !9
  %13 = load i64, ptr %3, align 8, !tbaa !9
  %14 = lshr i64 %13, 27
  %15 = xor i64 %12, %14
  %16 = mul i64 %15, -7723592293110705685
  store i64 %16, ptr %3, align 8, !tbaa !9
  %17 = load i64, ptr %3, align 8, !tbaa !9
  %18 = load i64, ptr %3, align 8, !tbaa !9
  %19 = lshr i64 %18, 31
  %20 = xor i64 %17, %19
  call void @llvm.lifetime.end.p0(i64 8, ptr %3) #9
  ret i64 %20
}

; Function Attrs: inlinehint nounwind uwtable
define dso_local void @php_random_xoshiro256starstar_seed64(ptr noundef %0, i64 noundef %1) #0 {
  %3 = alloca ptr, align 8
  %4 = alloca i64, align 8
  %5 = alloca [4 x i64], align 16
  store ptr %0, ptr %3, align 8, !tbaa !4
  store i64 %1, ptr %4, align 8, !tbaa !9
  call void @llvm.lifetime.start.p0(i64 32, ptr %5) #9
  %6 = call i64 @splitmix64(ptr noundef %4)
  %7 = getelementptr inbounds [4 x i64], ptr %5, i64 0, i64 0
  store i64 %6, ptr %7, align 16, !tbaa !9
  %8 = call i64 @splitmix64(ptr noundef %4)
  %9 = getelementptr inbounds [4 x i64], ptr %5, i64 0, i64 1
  store i64 %8, ptr %9, align 8, !tbaa !9
  %10 = call i64 @splitmix64(ptr noundef %4)
  %11 = getelementptr inbounds [4 x i64], ptr %5, i64 0, i64 2
  store i64 %10, ptr %11, align 16, !tbaa !9
  %12 = call i64 @splitmix64(ptr noundef %4)
  %13 = getelementptr inbounds [4 x i64], ptr %5, i64 0, i64 3
  store i64 %12, ptr %13, align 8, !tbaa !9
  %14 = load ptr, ptr %3, align 8, !tbaa !4
  %15 = getelementptr inbounds [4 x i64], ptr %5, i64 0, i64 0
  %16 = load i64, ptr %15, align 16, !tbaa !9
  %17 = getelementptr inbounds [4 x i64], ptr %5, i64 0, i64 1
  %18 = load i64, ptr %17, align 8, !tbaa !9
  %19 = getelementptr inbounds [4 x i64], ptr %5, i64 0, i64 2
  %20 = load i64, ptr %19, align 16, !tbaa !9
  %21 = getelementptr inbounds [4 x i64], ptr %5, i64 0, i64 3
  %22 = load i64, ptr %21, align 8, !tbaa !9
  call void @php_random_xoshiro256starstar_seed256(ptr noundef %14, i64 noundef %16, i64 noundef %18, i64 noundef %20, i64 noundef %22)
  call void @llvm.lifetime.end.p0(i64 32, ptr %5) #9
  ret void
}